Certificate:
    Data:
        Version: 3 (0x2)
        Serial Number: 2 (0x2)
    Signature Algorithm: sha256WithRSAEncryption
        Issuer: C=CA, ST=ON, L=Toronto, O=Boss Insights, OU=CA, CN=Boss Insights Certification Authority
        Validity
            Not Before: Dec 21 05:52:28 2020 GMT
            Not After : Dec 19 05:52:28 2030 GMT
        Subject: C=CA, ST=ON, L=Toronto, O=Boss Insights, OU=CA, CN=Boss Insights Certification Authority
        Subject Public Key Info:
            Public Key Algorithm: rsaEncryption
                Public-Key: (2048 bit)
                Modulus:
                    00:b1:c8:e2:16:1a:ad:84:6c:e1:4f:61:9c:c7:f7:
                    d3:22:3f:f4:f4:7a:ba:c5:a8:e9:50:2b:6b:93:88:
                    82:b1:b7:42:8b:e8:7a:ba:33:8e:e5:3c:bd:c5:77:
                    dc:4a:38:ca:c8:0c:ec:0e:df:9a:06:52:96:32:00:
                    45:a6:5f:f3:b1:3a:ed:c1:4c:d5:85:b2:50:e7:1a:
                    f1:35:6c:d9:7e:9c:8b:d9:ba:94:6f:8e:12:0b:98:
                    e9:90:b4:53:97:5e:b5:95:e9:cc:d2:d7:4c:76:1a:
                    e5:60:b9:f6:b1:b3:a6:34:fc:5c:81:60:a2:78:b4:
                    61:1b:54:0a:53:86:54:b7:9e:46:63:03:4a:e4:c0:
                    a2:98:89:78:9f:5b:8a:46:73:5a:a9:50:f7:e8:f4:
                    f6:fd:fa:d1:26:01:19:1e:e2:86:d1:3a:a6:a1:e2:
                    62:49:6e:6a:82:c0:d9:b0:cf:70:90:87:4d:47:5c:
                    7d:49:65:92:38:fb:73:7a:7e:83:14:72:61:bc:01:
                    03:ca:29:0b:88:d3:2b:99:15:bf:91:24:63:16:b9:
                    2f:89:e2:9e:9d:7e:05:d4:15:b2:e7:7d:7f:08:41:
                    62:77:7e:7f:78:3d:e3:33:fb:91:8c:b0:16:06:ce:
                    da:8e:19:5c:bd:ac:54:79:7c:2c:80:a6:a3:d6:c6:
                    14:cb
                Exponent: 65537 (0x10001)
        X509v3 extensions:
            X509v3 Subject Key Identifier: 
                6C:A1:E5:CB:4B:60:FD:E4:D3:2D:7B:3E:D7:77:E6:BA:A6:FF:EB:B6
            X509v3 Authority Key Identifier: 
                keyid:6C:A1:E5:CB:4B:60:FD:E4:D3:2D:7B:3E:D7:77:E6:BA:A6:FF:EB:B6

            X509v3 Basic Constraints: critical
                CA:TRUE
            X509v3 Key Usage: critical
                Certificate Sign, CRL Sign
            X509v3 Extended Key Usage: critical
                Time Stamping
    Signature Algorithm: sha256WithRSAEncryption
         41:7d:73:cc:15:4b:17:dd:90:f3:28:7d:cd:17:62:28:81:83:
         38:f3:97:8f:ea:bd:7a:51:57:ec:b4:33:c2:1e:33:85:84:37:
         0c:eb:51:73:3c:0e:2c:1c:bd:9f:60:44:57:63:b5:77:b5:42:
         1f:60:97:51:c5:98:cc:8b:28:e6:e8:e5:92:1e:88:6e:2a:81:
         29:dc:b2:9a:ec:72:50:a5:33:96:6b:bc:4d:08:03:b4:a2:98:
         d4:c4:af:bf:87:63:13:21:51:80:f8:5b:9c:6a:2f:45:dc:2a:
         53:21:da:04:9f:da:0a:94:e4:9c:81:b2:20:26:5e:56:82:5a:
         0b:3e:60:3e:0e:4d:eb:79:5e:48:b2:8f:44:8a:6a:75:cf:fc:
         d5:e6:7b:3a:13:7a:1d:21:22:4c:b5:00:6d:90:97:58:13:e6:
         40:c7:9b:8a:82:d2:04:9f:56:7a:3a:f0:5d:99:ac:34:66:e7:
         fa:28:2e:d1:f9:ed:73:a2:e9:d8:6f:97:c5:83:0c:f7:db:f1:
         bb:5d:87:f2:38:a7:e8:3b:de:5a:a1:b1:53:a7:3d:9d:2d:d3:
         1b:96:47:a1:c4:00:b3:0b:90:b3:09:bd:6c:31:a4:4a:7e:2b:
         de:5e:08:b7:d0:8d:33:6c:5d:08:61:77:80:48:6d:49:69:73:
         70:d0:45:17
-----BEGIN CERTIFICATE-----
MIID+jCCAuKgAwIBAgIBAjANBgkqhkiG9w0BAQsFADCBgTELMAkGA1UEBhMCQ0Ex
CzAJBgNVBAgTAk9OMRAwDgYDVQQHEwdUb3JvbnRvMRYwFAYDVQQKEw1Cb3NzIElu
c2lnaHRzMQswCQYDVQQLEwJDQTEuMCwGA1UEAxMlQm9zcyBJbnNpZ2h0cyBDZXJ0
aWZpY2F0aW9uIEF1dGhvcml0eTAeFw0yMDEyMjEwNTUyMjhaFw0zMDEyMTkwNTUy
MjhaMIGBMQswCQYDVQQGEwJDQTELMAkGA1UECBMCT04xEDAOBgNVBAcTB1Rvcm9u
dG8xFjAUBgNVBAoTDUJvc3MgSW5zaWdodHMxCzAJBgNVBAsTAkNBMS4wLAYDVQQD
EyVCb3NzIEluc2lnaHRzIENlcnRpZmljYXRpb24gQXV0aG9yaXR5MIIBIjANBgkq
hkiG9w0BAQEFAAOCAQ8AMIIBCgKCAQEAscjiFhqthGzhT2Gcx/fTIj/09Hq6xajp
UCtrk4iCsbdCi+h6ujOO5Ty9xXfcSjjKyAzsDt+aBlKWMgBFpl/zsTrtwUzVhbJQ
5xrxNWzZfpyL2bqUb44SC5jpkLRTl161lenM0tdMdhrlYLn2sbOmNPxcgWCieLRh
G1QKU4ZUt55GYwNK5MCimIl4n1uKRnNaqVD36PT2/frRJgEZHuKG0TqmoeJiSW5q
gsDZsM9wkIdNR1x9SWWSOPtzen6DFHJhvAEDyikLiNMrmRW/kSRjFrkvieKenX4F
1BWy531/CEFid35/eD3jM/uRjLAWBs7ajhlcvaxUeXwsgKaj1sYUywIDAQABo3sw
eTAdBgNVHQ4EFgQUbKHly0tg/eTTLXs+13fmuqb/67YwHwYDVR0jBBgwFoAUbKHl
y0tg/eTTLXs+13fmuqb/67YwDwYDVR0TAQH/BAUwAwEB/zAOBgNVHQ8BAf8EBAMC
AQYwFgYDVR0lAQH/BAwwCgYIKwYBBQUHAwgwDQYJKoZIhvcNAQELBQADggEBAEF9
c8wVSxfdkPMofc0XYiiBgzjzl4/qvXpRV+y0M8IeM4WENwzrUXM8DiwcvZ9gRFdj
tXe1Qh9gl1HFmMyLKObo5ZIeiG4qgSncsprsclClM5ZrvE0IA7SimNTEr7+HYxMh
UYD4W5xqL0XcKlMh2gSf2gqU5JyBsiAmXlaCWgs+YD4OTet5Xkiyj0SKanXP/NXm
ezoTeh0hIky1AG2Ql1gT5kDHm4qC0gSfVno68F2ZrDRm5/ooLtH57XOi6dhvl8WD
DPfb8btdh/I4p+g73lqhsVOnPZ0t0xuWR6HEALMLkLMJvWwxpEp+K95eCLfQjTNs
XQhhd4BIbUlpc3DQRRc=
-----END CERTIFICATE-----
